target datalayout = "e-m:e-p270:32:32-p271:32:32-p272:64:64-i64:64-i128:128-f80:128-n8:16:32:64-S128"
target triple = "x86_64-pc-linux-gnu"

@prte_launch_agent = external global ptr, align 8
@.str.56 = private unnamed_addr constant [6 x i8] c"prted\00", align 1

; Function Attrs: nounwind uwtable
define i32 @prte_plm_base_setup_prted_cmd(ptr noundef %0, ptr noundef %1) #0 {
  %3 = alloca ptr, align 8
  %4 = alloca ptr, align 8
  %5 = alloca i32, align 4
  %6 = alloca i32, align 4
  %7 = alloca ptr, align 8
  store ptr %0, ptr %3, align 8, !tbaa !97
  store ptr %1, ptr %4, align 8, !tbaa !219
  call void @llvm.lifetime.start.p0(i64 4, ptr %5) #13
  call void @llvm.lifetime.start.p0(i64 4, ptr %6) #13
  call void @llvm.lifetime.start.p0(i64 8, ptr %7) #13
  store i32 0, ptr %6, align 4, !tbaa !29
  %8 = load ptr, ptr @prte_launch_agent, align 8, !tbaa !7
  %9 = call ptr @PMIx_Argv_split(ptr noundef %8, i32 noundef 32)
  store ptr %9, ptr %7, align 8, !tbaa !221
  store i32 0, ptr %5, align 4, !tbaa !29
  br label %10

10:                                               ; preds = %41, %2
  %11 = load ptr, ptr %7, align 8, !tbaa !221
  %12 = icmp ne ptr null, %11
  br i1 %12, label %13, label %20

13:                                               ; preds = %10
  %14 = load ptr, ptr %7, align 8, !tbaa !221
  %15 = load i32, ptr %5, align 4, !tbaa !29
  %16 = sext i32 %15 to i64
  %17 = getelementptr inbounds ptr, ptr %14, i64 %16
  %18 = load ptr, ptr %17, align 8, !tbaa !7
  %19 = icmp ne ptr null, %18
  br label %20

20:                                               ; preds = %13, %10
  %21 = phi i1 [ false, %10 ], [ %19, %13 ]
  br i1 %21, label %22, label %44

22:                                               ; preds = %20
  %23 = load ptr, ptr %7, align 8, !tbaa !221
  %24 = load i32, ptr %5, align 4, !tbaa !29
  %25 = sext i32 %24 to i64
  %26 = getelementptr inbounds ptr, ptr %23, i64 %25
  %27 = load ptr, ptr %26, align 8, !tbaa !7
  %28 = call i32 @strcmp(ptr noundef %27, ptr noundef @.str.56) #12
  %29 = icmp eq i32 0, %28
  br i1 %29, label %30, label %32

30:                                               ; preds = %22
  %31 = load i32, ptr %5, align 4, !tbaa !29
  store i32 %31, ptr %6, align 4, !tbaa !29
  br label %32

32:                                               ; preds = %30, %22
  %33 = load ptr, ptr %3, align 8, !tbaa !97
  %34 = load ptr, ptr %4, align 8, !tbaa !219
  %35 = load ptr, ptr %7, align 8, !tbaa !221
  %36 = load i32, ptr %5, align 4, !tbaa !29
  %37 = sext i32 %36 to i64
  %38 = getelementptr inbounds ptr, ptr %35, i64 %37
  %39 = load ptr, ptr %38, align 8, !tbaa !7
  %40 = call i32 @pmix_argv_append(ptr noundef %33, ptr noundef %34, ptr noundef %39)
  br label %41

41:                                               ; preds = %32
  %42 = load i32, ptr %5, align 4, !tbaa !29
  %43 = add nsw i32 %42, 1
  store i32 %43, ptr %5, align 4, !tbaa !29
  br label %10, !llvm.loop !222

44:                                               ; preds = %20
  %45 = load ptr, ptr %7, align 8, !tbaa !221
  call void @PMIx_Argv_free(ptr noundef %45)
  %46 = load i32, ptr %6, align 4, !tbaa !29
  call void @llvm.lifetime.end.p0(i64 8, ptr %7) #13
  call void @llvm.lifetime.end.p0(i64 4, ptr %6) #13
  call void @llvm.lifetime.end.p0(i64 4, ptr %5) #13
  ret i32 %46
}