; Function Attrs: nounwind uwtable
define i32 @prte_plm_base_setup_prted_cmd(ptr noundef %0, ptr noundef %1) local_unnamed_addr #0 {
  %3 = load ptr, ptr @prte_launch_agent, align 8, !tbaa !3
  %4 = tail call ptr @PMIx_Argv_split(ptr noundef %3, i32 noundef 32) #17
  %.not = icmp eq ptr %4, null
  br i1 %.not, label %.critedge, label %.lr.ph.split

.lr.ph.split:                                     ; preds = %2
  %5 = load ptr, ptr %4, align 8, !tbaa !3
  %.not1521 = icmp eq ptr %5, null
  br i1 %.not1521, label %.critedge, label %.lr.ph24

.lr.ph24:                                         ; preds = %.lr.ph.split, %.lr.ph24
  %indvars.iv = phi i64 [ %indvars.iv.next, %.lr.ph24 ], [ 0, %.lr.ph.split ]
  %6 = phi ptr [ %12, %.lr.ph24 ], [ %5, %.lr.ph.split ]
  %.0121623 = phi i32 [ %spec.select, %.lr.ph24 ], [ 0, %.lr.ph.split ]
  %7 = tail call i32 @strcmp(ptr noundef nonnull dereferenceable(1) %6, ptr noundef nonnull dereferenceable(6) @.str.56) #16
  %8 = icmp eq i32 %7, 0
  %9 = trunc nuw nsw i64 %indvars.iv to i32
  %spec.select = select i1 %8, i32 %9, i32 %.0121623
  %10 = tail call i32 @pmix_argv_append(ptr noundef %0, ptr noundef %1, ptr noundef nonnull %6) #17
  %indvars.iv.next = add nuw nsw i64 %indvars.iv, 1
  %11 = getelementptr inbounds nuw ptr, ptr %4, i64 %indvars.iv.next
  %12 = load ptr, ptr %11, align 8, !tbaa !3
  %.not15 = icmp eq ptr %12, null
  br i1 %.not15, label %.critedge, label %.lr.ph24

.critedge:                                        ; preds = %.lr.ph24, %.lr.ph.split, %2
  %.012.lcssa = phi i32 [ 0, %2 ], [ 0, %.lr.ph.split ], [ %spec.select, %.lr.ph24 ]
  tail call void @PMIx_Argv_free(ptr noundef %4) #17
  ret i32 %.012.lcssa
}